target datalayout = "e-m:e-p270:32:32-p271:32:32-p272:64:64-i64:64-i128:128-f80:128-n8:16:32:64-S128"
target triple = "x86_64-pc-linux-gnu"

%struct._object = type { %union.anon, ptr }
%union.anon = type { i64 }
%struct.anon.0 = type { i32, i32 }
%struct.tok_state = type { ptr, ptr, ptr, i32, ptr, ptr, ptr, ptr, i32, ptr, i32, i32, [100 x i32], i32, i32, ptr, ptr, i32, i32, i32, i32, i32, [200 x i8], [200 x i32], [200 x i32], ptr, [100 x i32], i32, i32, ptr, i32, ptr, ptr, ptr, ptr, ptr, ptr, ptr, ptr, i32, i32, ptr, i32, [150 x %struct._tokenizer_mode], i32, i32, i32, i32 }
%struct._tokenizer_mode = type { i32, i32, i32, i8, i32, i32, ptr, ptr, i32, i64, i64, i64, i64, ptr, i32, i32 }
%struct.PyCompilerFlags = type { i32, i32 }

@.str.10 = private unnamed_addr constant [8 x i8] c"<stdin>\00", align 1

; Function Attrs: alwaysinline nounwind uwtable
define internal i32 @_Py_IsImmortal(ptr noundef %0) #5 {
  %2 = alloca ptr, align 8
  store ptr %0, ptr %2, align 8, !tbaa !19
  %3 = load ptr, ptr %2, align 8, !tbaa !19
  %4 = getelementptr inbounds nuw %struct._object, ptr %3, i32 0, i32 0
  %5 = getelementptr inbounds nuw %struct.anon.0, ptr %4, i32 0, i32 0
  %6 = load i32, ptr %5, align 8, !tbaa !23
  %7 = icmp slt i32 %6, 0
  %8 = zext i1 %7 to i32
  ret i32 %8
}

; Function Attrs: alwaysinline nounwind uwtable
define internal void @Py_DECREF(ptr noundef %0) #5 {
  %2 = alloca ptr, align 8
  store ptr %0, ptr %2, align 8, !tbaa !19
  %3 = load ptr, ptr %2, align 8, !tbaa !19
  %4 = call i32 @_Py_IsImmortal(ptr noundef %3)
  %5 = icmp ne i32 %4, 0
  br i1 %5, label %6, label %7

6:                                                ; preds = %1
  br label %16

7:                                                ; preds = %1
  %8 = load ptr, ptr %2, align 8, !tbaa !19
  %9 = getelementptr inbounds nuw %struct._object, ptr %8, i32 0, i32 0
  %10 = getelementptr inbounds nuw %struct.anon.0, ptr %9, i32 0, i32 0
  %11 = load i32, ptr %10, align 8, !tbaa !23
  %12 = add i32 %11, -1
  store i32 %12, ptr %10, align 8, !tbaa !23
  %13 = icmp eq i32 %12, 0
  br i1 %13, label %14, label %16

14:                                               ; preds = %7
  %15 = load ptr, ptr %2, align 8, !tbaa !19
  call void @_Py_Dealloc(ptr noundef %15)
  br label %16

16:                                               ; preds = %6, %14, %7
  ret void
}

; Function Attrs: alwaysinline nounwind uwtable
define internal void @Py_INCREF(ptr noundef %0) #5 {
  %2 = alloca ptr, align 8
  %3 = alloca i32, align 4
  %4 = alloca i32, align 4
  store ptr %0, ptr %2, align 8, !tbaa !19
  call void @llvm.lifetime.start.p0(i64 4, ptr %3) #10
  %5 = load ptr, ptr %2, align 8, !tbaa !19
  %6 = getelementptr inbounds nuw %struct._object, ptr %5, i32 0, i32 0
  %7 = getelementptr inbounds nuw %struct.anon.0, ptr %6, i32 0, i32 0
  %8 = load i32, ptr %7, align 8, !tbaa !23
  store i32 %8, ptr %3, align 4, !tbaa !18
  %9 = load i32, ptr %3, align 4, !tbaa !18
  %10 = icmp slt i32 %9, 0
  br i1 %10, label %11, label %12

11:                                               ; preds = %1
  store i32 1, ptr %4, align 4
  br label %18

12:                                               ; preds = %1
  %13 = load i32, ptr %3, align 4, !tbaa !18
  %14 = add i32 %13, 1
  %15 = load ptr, ptr %2, align 8, !tbaa !19
  %16 = getelementptr inbounds nuw %struct._object, ptr %15, i32 0, i32 0
  %17 = getelementptr inbounds nuw %struct.anon.0, ptr %16, i32 0, i32 0
  store i32 %14, ptr %17, align 8, !tbaa !23
  store i32 0, ptr %4, align 4
  br label %18

18:                                               ; preds = %12, %11
  call void @llvm.lifetime.end.p0(i64 4, ptr %3) #10
  %19 = load i32, ptr %4, align 4
  switch i32 %19, label %21 [
    i32 0, label %20
    i32 1, label %20
  ]

20:                                               ; preds = %18, %18
  ret void

21:                                               ; preds = %18
  unreachable
}

; Function Attrs: inlinehint nounwind uwtable
define internal void @Py_XDECREF(ptr noundef %0) #4 {
  %2 = alloca ptr, align 8
  store ptr %0, ptr %2, align 8, !tbaa !19
  %3 = load ptr, ptr %2, align 8, !tbaa !19
  %4 = icmp ne ptr %3, null
  br i1 %4, label %5, label %7

5:                                                ; preds = %1
  %6 = load ptr, ptr %2, align 8, !tbaa !19
  call void @Py_DECREF(ptr noundef %6)
  br label %7

7:                                                ; preds = %5, %1
  ret void
}

; Function Attrs: nounwind uwtable
define internal i32 @compute_parser_flags(ptr noundef %0) #0 {
  %2 = alloca i32, align 4
  %3 = alloca ptr, align 8
  %4 = alloca i32, align 4
  %5 = alloca i32, align 4
  store ptr %0, ptr %3, align 8, !tbaa !4
  call void @llvm.lifetime.start.p0(i64 4, ptr %4) #10
  store i32 0, ptr %4, align 4, !tbaa !18
  %6 = load ptr, ptr %3, align 8, !tbaa !4
  %7 = icmp ne ptr %6, null
  br i1 %7, label %9, label %8

8:                                                ; preds = %1
  store i32 0, ptr %2, align 4
  store i32 1, ptr %5, align 4
  br label %56

9:                                                ; preds = %1
  %10 = load ptr, ptr %3, align 8, !tbaa !4
  %11 = getelementptr inbounds nuw %struct.PyCompilerFlags, ptr %10, i32 0, i32 0
  %12 = load i32, ptr %11, align 4, !tbaa !140
  %13 = and i32 %12, 512
  %14 = icmp ne i32 %13, 0
  br i1 %14, label %15, label %18

15:                                               ; preds = %9
  %16 = load i32, ptr %4, align 4, !tbaa !18
  %17 = or i32 %16, 2
  store i32 %17, ptr %4, align 4, !tbaa !18
  br label %18

18:                                               ; preds = %15, %9
  %19 = load ptr, ptr %3, align 8, !tbaa !4
  %20 = getelementptr inbounds nuw %struct.PyCompilerFlags, ptr %19, i32 0, i32 0
  %21 = load i32, ptr %20, align 4, !tbaa !140
  %22 = and i32 %21, 2048
  %23 = icmp ne i32 %22, 0
  br i1 %23, label %24, label %27

24:                                               ; preds = %18
  %25 = load i32, ptr %4, align 4, !tbaa !18
  %26 = or i32 %25, 16
  store i32 %26, ptr %4, align 4, !tbaa !18
  br label %27

27:                                               ; preds = %24, %18
  %28 = load ptr, ptr %3, align 8, !tbaa !4
  %29 = getelementptr inbounds nuw %struct.PyCompilerFlags, ptr %28, i32 0, i32 0
  %30 = load i32, ptr %29, align 4, !tbaa !140
  %31 = and i32 %30, 4194304
  %32 = icmp ne i32 %31, 0
  br i1 %32, label %33, label %36

33:                                               ; preds = %27
  %34 = load i32, ptr %4, align 4, !tbaa !18
  %35 = or i32 %34, 32
  store i32 %35, ptr %4, align 4, !tbaa !18
  br label %36

36:                                               ; preds = %33, %27
  %37 = load ptr, ptr %3, align 8, !tbaa !4
  %38 = getelementptr inbounds nuw %struct.PyCompilerFlags, ptr %37, i32 0, i32 0
  %39 = load i32, ptr %38, align 4, !tbaa !140
  %40 = and i32 %39, 4096
  %41 = icmp ne i32 %40, 0
  br i1 %41, label %42, label %45

42:                                               ; preds = %36
  %43 = load i32, ptr %4, align 4, !tbaa !18
  %44 = or i32 %43, 64
  store i32 %44, ptr %4, align 4, !tbaa !18
  br label %45

45:                                               ; preds = %42, %36
  %46 = load ptr, ptr %3, align 8, !tbaa !4
  %47 = getelementptr inbounds nuw %struct.PyCompilerFlags, ptr %46, i32 0, i32 0
  %48 = load i32, ptr %47, align 4, !tbaa !140
  %49 = and i32 %48, 16384
  %50 = icmp ne i32 %49, 0
  br i1 %50, label %51, label %54

51:                                               ; preds = %45
  %52 = load i32, ptr %4, align 4, !tbaa !18
  %53 = or i32 %52, 256
  store i32 %53, ptr %4, align 4, !tbaa !18
  br label %54

54:                                               ; preds = %51, %45
  %55 = load i32, ptr %4, align 4, !tbaa !18
  store i32 %55, ptr %2, align 4
  store i32 1, ptr %5, align 4
  br label %56

56:                                               ; preds = %54, %8
  call void @llvm.lifetime.end.p0(i64 4, ptr %4) #10
  %57 = load i32, ptr %2, align 4
  ret i32 %57
}

; Function Attrs: inlinehint nounwind uwtable
define internal ptr @_Py_NewRef(ptr noundef %0) #4 {
  %2 = alloca ptr, align 8
  store ptr %0, ptr %2, align 8, !tbaa !19
  %3 = load ptr, ptr %2, align 8, !tbaa !19
  call void @Py_INCREF(ptr noundef %3)
  %4 = load ptr, ptr %2, align 8, !tbaa !19
  ret ptr %4
}

; Function Attrs: nounwind uwtable
define hidden ptr @_PyPegen_run_parser_from_file_pointer(ptr noundef %0, i32 noundef %1, ptr noundef %2, ptr noundef %3, ptr noundef %4, ptr noundef %5, ptr noundef %6, ptr noundef %7, ptr noundef %8, ptr noundef %9) #0 {
  %11 = alloca ptr, align 8
  %12 = alloca ptr, align 8
  %13 = alloca i32, align 4
  %14 = alloca ptr, align 8
  %15 = alloca ptr, align 8
  %16 = alloca ptr, align 8
  %17 = alloca ptr, align 8
  %18 = alloca ptr, align 8
  %19 = alloca ptr, align 8
  %20 = alloca ptr, align 8
  %21 = alloca ptr, align 8
  %22 = alloca ptr, align 8
  %23 = alloca i32, align 4
  %24 = alloca ptr, align 8
  %25 = alloca i32, align 4
  %26 = alloca ptr, align 8
  store ptr %0, ptr %12, align 8, !tbaa !132
  store i32 %1, ptr %13, align 4, !tbaa !18
  store ptr %2, ptr %14, align 8, !tbaa !19
  store ptr %3, ptr %15, align 8, !tbaa !21
  store ptr %4, ptr %16, align 8, !tbaa !21
  store ptr %5, ptr %17, align 8, !tbaa !21
  store ptr %6, ptr %18, align 8, !tbaa !4
  store ptr %7, ptr %19, align 8, !tbaa !117
  store ptr %8, ptr %20, align 8, !tbaa !133
  store ptr %9, ptr %21, align 8, !tbaa !118
  call void @llvm.lifetime.start.p0(i64 8, ptr %22) #10
  %27 = load ptr, ptr %12, align 8, !tbaa !132
  %28 = load ptr, ptr %15, align 8, !tbaa !21
  %29 = load ptr, ptr %16, align 8, !tbaa !21
  %30 = load ptr, ptr %17, align 8, !tbaa !21
  %31 = call ptr @_PyTokenizer_FromFile(ptr noundef %27, ptr noundef %28, ptr noundef %29, ptr noundef %30)
  store ptr %31, ptr %22, align 8, !tbaa !116
  %32 = load ptr, ptr %22, align 8, !tbaa !116
  %33 = icmp eq ptr %32, null
  br i1 %33, label %34, label %40

34:                                               ; preds = %10
  %35 = call ptr @PyErr_Occurred()
  %36 = icmp ne ptr %35, null
  br i1 %36, label %37, label %39

37:                                               ; preds = %34
  %38 = load ptr, ptr %14, align 8, !tbaa !19
  call void @_PyPegen_raise_tokenizer_init_error(ptr noundef %38)
  store ptr null, ptr %11, align 8
  store i32 1, ptr %23, align 4
  br label %114

39:                                               ; preds = %34
  store ptr null, ptr %11, align 8
  store i32 1, ptr %23, align 4
  br label %114

40:                                               ; preds = %10
  %41 = load ptr, ptr %22, align 8, !tbaa !116
  %42 = getelementptr inbounds nuw %struct.tok_state, ptr %41, i32 0, i32 9
  %43 = load ptr, ptr %42, align 8, !tbaa !134
  %44 = icmp ne ptr %43, null
  br i1 %44, label %45, label %55

45:                                               ; preds = %40
  %46 = load ptr, ptr %16, align 8, !tbaa !21
  %47 = icmp ne ptr %46, null
  br i1 %47, label %55, label %48

48:                                               ; preds = %45
  %49 = load ptr, ptr %17, align 8, !tbaa !21
  %50 = icmp ne ptr %49, null
  br i1 %50, label %55, label %51

51:                                               ; preds = %48
  %52 = load ptr, ptr %14, align 8, !tbaa !19
  %53 = call i32 @PyUnicode_CompareWithASCIIString(ptr noundef %52, ptr noundef @.str.10)
  %54 = icmp eq i32 %53, 0
  br i1 %54, label %55, label %58

55:                                               ; preds = %51, %48, %45, %40
  %56 = load ptr, ptr %22, align 8, !tbaa !116
  %57 = getelementptr inbounds nuw %struct.tok_state, ptr %56, i32 0, i32 3
  store i32 1, ptr %57, align 8, !tbaa !135
  br label %58

58:                                               ; preds = %55, %51
  %59 = load ptr, ptr %14, align 8, !tbaa !19
  %60 = call ptr @_Py_NewRef(ptr noundef %59)
  %61 = load ptr, ptr %22, align 8, !tbaa !116
  %62 = getelementptr inbounds nuw %struct.tok_state, ptr %61, i32 0, i32 25
  store ptr %60, ptr %62, align 8, !tbaa !136
  call void @llvm.lifetime.start.p0(i64 8, ptr %24) #10
  store ptr null, ptr %24, align 8, !tbaa !137
  call void @llvm.lifetime.start.p0(i64 4, ptr %25) #10
  %63 = load ptr, ptr %18, align 8, !tbaa !4
  %64 = call i32 @compute_parser_flags(ptr noundef %63)
  store i32 %64, ptr %25, align 4, !tbaa !18
  call void @llvm.lifetime.start.p0(i64 8, ptr %26) #10
  %65 = load ptr, ptr %22, align 8, !tbaa !116
  %66 = load i32, ptr %13, align 4, !tbaa !18
  %67 = load i32, ptr %25, align 4, !tbaa !18
  %68 = load ptr, ptr %19, align 8, !tbaa !117
  %69 = load ptr, ptr %21, align 8, !tbaa !118
  %70 = call ptr @_PyPegen_Parser_New(ptr noundef %65, i32 noundef %66, i32 noundef %67, i32 noundef 14, ptr noundef %68, ptr noundef %69)
  store ptr %70, ptr %26, align 8, !tbaa !4
  %71 = load ptr, ptr %26, align 8, !tbaa !4
  %72 = icmp eq ptr %71, null
  br i1 %72, label %73, label %74

73:                                               ; preds = %58
  br label %111

74:                                               ; preds = %58
  %75 = load ptr, ptr %26, align 8, !tbaa !4
  %76 = call ptr @_PyPegen_run_parser(ptr noundef %75)
  store ptr %76, ptr %24, align 8, !tbaa !137
  %77 = load ptr, ptr %26, align 8, !tbaa !4
  call void @_PyPegen_Parser_Free(ptr noundef %77)
  %78 = load ptr, ptr %22, align 8, !tbaa !116
  %79 = getelementptr inbounds nuw %struct.tok_state, ptr %78, i32 0, i32 3
  %80 = load i32, ptr %79, align 8, !tbaa !135
  %81 = icmp ne i32 %80, 0
  br i1 %81, label %82, label %110

82:                                               ; preds = %74
  %83 = load ptr, ptr %22, align 8, !tbaa !116
  %84 = getelementptr inbounds nuw %struct.tok_state, ptr %83, i32 0, i32 4
  %85 = load ptr, ptr %84, align 8, !tbaa !139
  %86 = icmp ne ptr %85, null
  br i1 %86, label %87, label %110

87:                                               ; preds = %82
  %88 = load ptr, ptr %24, align 8, !tbaa !137
  %89 = icmp ne ptr %88, null
  br i1 %89, label %90, label %110

90:                                               ; preds = %87
  %91 = load ptr, ptr %20, align 8, !tbaa !133
  %92 = icmp ne ptr %91, null
  br i1 %92, label %93, label %110

93:                                               ; preds = %90
  %94 = load ptr, ptr %22, align 8, !tbaa !116
  %95 = getelementptr inbounds nuw %struct.tok_state, ptr %94, i32 0, i32 4
  %96 = load ptr, ptr %95, align 8, !tbaa !139
  %97 = call ptr @PyUnicode_FromString(ptr noundef %96)
  %98 = load ptr, ptr %20, align 8, !tbaa !133
  store ptr %97, ptr %98, align 8, !tbaa !19
  %99 = load ptr, ptr %20, align 8, !tbaa !133
  %100 = icmp ne ptr %99, null
  br i1 %100, label %101, label %107

101:                                              ; preds = %93
  %102 = load ptr, ptr %21, align 8, !tbaa !118
  %103 = load ptr, ptr %20, align 8, !tbaa !133
  %104 = load ptr, ptr %103, align 8, !tbaa !19
  %105 = call i32 @_PyArena_AddPyObject(ptr noundef %102, ptr noundef %104)
  %106 = icmp slt i32 %105, 0
  br i1 %106, label %107, label %109

107:                                              ; preds = %101, %93
  %108 = load ptr, ptr %20, align 8, !tbaa !133
  call void @Py_XDECREF(ptr noundef %108)
  store ptr null, ptr %24, align 8, !tbaa !137
  br label %111

109:                                              ; preds = %101
  br label %110

110:                                              ; preds = %109, %90, %87, %82, %74
  br label %111

111:                                              ; preds = %110, %107, %73
  %112 = load ptr, ptr %22, align 8, !tbaa !116
  call void @_PyTokenizer_Free(ptr noundef %112)
  %113 = load ptr, ptr %24, align 8, !tbaa !137
  store ptr %113, ptr %11, align 8
  store i32 1, ptr %23, align 4
  call void @llvm.lifetime.end.p0(i64 8, ptr %26) #10
  call void @llvm.lifetime.end.p0(i64 4, ptr %25) #10
  call void @llvm.lifetime.end.p0(i64 8, ptr %24) #10
  br label %114

114:                                              ; preds = %111, %39, %37
  call void @llvm.lifetime.end.p0(i64 8, ptr %22) #10
  %115 = load ptr, ptr %11, align 8
  ret ptr %115
}