; Function Attrs: nounwind uwtable
define hidden ptr @_PyPegen_run_parser_from_file_pointer(ptr noundef %0, i32 noundef %1, ptr noundef %2, ptr noundef %3, ptr noundef %4, ptr noundef %5, ptr noundef readonly %6, ptr noundef %7, ptr noundef %8, ptr noundef %9) local_unnamed_addr #1 {
  %11 = tail call ptr @_PyTokenizer_FromFile(ptr noundef %0, ptr noundef %3, ptr noundef %4, ptr noundef %5) #13
  %12 = icmp eq ptr %11, null
  br i1 %12, label %13, label %16

13:                                               ; preds = %10
  %14 = tail call ptr @PyErr_Occurred() #13
  %.not47 = icmp eq ptr %14, null
  br i1 %.not47, label %64, label %15

15:                                               ; preds = %13
  tail call void @_PyPegen_raise_tokenizer_init_error(ptr noundef %2) #13
  br label %64

16:                                               ; preds = %10
  %17 = getelementptr inbounds nuw i8, ptr %11, i64 72
  %18 = load ptr, ptr %17, align 8, !tbaa !124
  %19 = icmp eq ptr %18, null
  %20 = icmp ne ptr %4, null
  %or.cond = or i1 %20, %19
  %21 = icmp ne ptr %5, null
  %or.cond3 = or i1 %21, %or.cond
  br i1 %or.cond3, label %25, label %22

22:                                               ; preds = %16
  %23 = tail call i32 @PyUnicode_CompareWithASCIIString(ptr noundef %2, ptr noundef nonnull @.str.10) #13
  %24 = icmp eq i32 %23, 0
  br i1 %24, label %25, label %27

25:                                               ; preds = %22, %16
  %26 = getelementptr inbounds nuw i8, ptr %11, i64 24
  store i32 1, ptr %26, align 8, !tbaa !125
  br label %27

27:                                               ; preds = %25, %22
  %28 = load i32, ptr %2, align 8, !tbaa !18
  %29 = icmp slt i32 %28, 0
  br i1 %29, label %_Py_NewRef.exit, label %30

30:                                               ; preds = %27
  %31 = add nuw i32 %28, 1
  store i32 %31, ptr %2, align 8, !tbaa !18
  br label %_Py_NewRef.exit

_Py_NewRef.exit:                                  ; preds = %27, %30
  %32 = getelementptr inbounds nuw i8, ptr %11, i64 2336
  store ptr %2, ptr %32, align 8, !tbaa !126
  %.not.i = icmp eq ptr %6, null
  br i1 %.not.i, label %compute_parser_flags.exit, label %33

33:                                               ; preds = %_Py_NewRef.exit
  %34 = load i32, ptr %6, align 4, !tbaa !127
  %35 = lshr i32 %34, 8
  %spec.select.i = and i32 %35, 2
  %36 = lshr i32 %34, 7
  %37 = and i32 %36, 16
  %.1.i = or disjoint i32 %spec.select.i, %37
  %38 = lshr i32 %34, 17
  %39 = and i32 %38, 32
  %.2.i = or disjoint i32 %.1.i, %39
  %40 = lshr i32 %34, 6
  %41 = and i32 %40, 320
  %.4.i = or disjoint i32 %.2.i, %41
  br label %compute_parser_flags.exit

compute_parser_flags.exit:                        ; preds = %_Py_NewRef.exit, %33
  %.012.i = phi i32 [ %.4.i, %33 ], [ 0, %_Py_NewRef.exit ]
  %42 = tail call ptr @_PyPegen_Parser_New(ptr noundef nonnull %11, i32 noundef %1, i32 noundef %.012.i, i32 noundef 14, ptr noundef %7, ptr noundef %9)
  %43 = icmp eq ptr %42, null
  br i1 %43, label %Py_XDECREF.exit, label %44

44:                                               ; preds = %compute_parser_flags.exit
  %45 = tail call ptr @_PyPegen_run_parser(ptr noundef nonnull %42)
  tail call void @_PyPegen_Parser_Free(ptr noundef nonnull %42)
  %46 = getelementptr inbounds nuw i8, ptr %11, i64 24
  %47 = load i32, ptr %46, align 8, !tbaa !125
  %.not = icmp eq i32 %47, 0
  br i1 %.not, label %Py_XDECREF.exit, label %48

48:                                               ; preds = %44
  %49 = getelementptr inbounds nuw i8, ptr %11, i64 32
  %50 = load ptr, ptr %49, align 8, !tbaa !129
  %51 = icmp ne ptr %50, null
  %52 = icmp ne ptr %45, null
  %or.cond5 = select i1 %51, i1 %52, i1 false
  %53 = icmp ne ptr %8, null
  %or.cond7 = and i1 %53, %or.cond5
  br i1 %or.cond7, label %54, label %Py_XDECREF.exit

54:                                               ; preds = %48
  %55 = tail call ptr @PyUnicode_FromString(ptr noundef nonnull %50) #13
  store ptr %55, ptr %8, align 8, !tbaa !19
  %56 = tail call i32 @_PyArena_AddPyObject(ptr noundef %9, ptr noundef %55) #13
  %57 = icmp slt i32 %56, 0
  br i1 %57, label %58, label %Py_XDECREF.exit

58:                                               ; preds = %54
  %59 = load i32, ptr %8, align 8, !tbaa !18
  %.not.i.i = icmp sgt i32 %59, -1
  br i1 %.not.i.i, label %60, label %Py_XDECREF.exit

60:                                               ; preds = %58
  %61 = add nsw i32 %59, -1
  store i32 %61, ptr %8, align 8, !tbaa !18
  %62 = icmp eq i32 %61, 0
  br i1 %62, label %63, label %Py_XDECREF.exit

63:                                               ; preds = %60
  tail call void @_Py_Dealloc(ptr noundef nonnull %8) #13
  br label %Py_XDECREF.exit

Py_XDECREF.exit:                                  ; preds = %63, %60, %58, %44, %48, %54, %compute_parser_flags.exit
  %.041 = phi ptr [ null, %compute_parser_flags.exit ], [ %45, %54 ], [ %45, %48 ], [ %45, %44 ], [ null, %58 ], [ null, %60 ], [ null, %63 ]
  tail call void @_PyTokenizer_Free(ptr noundef nonnull %11) #13
  br label %64

64:                                               ; preds = %13, %Py_XDECREF.exit, %15
  %.0 = phi ptr [ null, %15 ], [ %.041, %Py_XDECREF.exit ], [ null, %13 ]
  ret ptr %.0
}